; Function Attrs: mustprogress uwtable
define noundef zeroext i1 @_ZNK32pxrInternal_v0_24__pxrReserved__17UsdAttributeQuery24GetTimeSamplesInIntervalERKNS_10GfIntervalEPSt6vectorIdSaIdEE(ptr noundef nonnull align 8 dereferenceable(120) %0, ptr noundef nonnull align 8 dereferenceable(32) %1, ptr noundef %2) local_unnamed_addr #0 align 2 {
  %4 = getelementptr inbounds nuw i8, ptr %0, i64 8
  %5 = load ptr, ptr %4, align 8
  %.not.i.i = icmp eq ptr %5, null
  br i1 %.not.i.i, label %10, label %6

6:                                                ; preds = %3
  %7 = getelementptr inbounds nuw i8, ptr %5, i64 56
  %8 = load i64, ptr %7, align 8
  %9 = and i64 %8, 2048
  %.not5.i.i = icmp eq i64 %9, 0
  br i1 %.not5.i.i, label %_ZNK32pxrInternal_v0_24__pxrReserved__9UsdObject9_GetStageEv.exit, label %10

10:                                               ; preds = %6, %3
  tail call void @_ZN32pxrInternal_v0_24__pxrReserved__31Usd_ThrowExpiredPrimAccessErrorEPKNS_12Usd_PrimDataE(ptr noundef %5)
  br label %_ZNK32pxrInternal_v0_24__pxrReserved__9UsdObject9_GetStageEv.exit

_ZNK32pxrInternal_v0_24__pxrReserved__9UsdObject9_GetStageEv.exit: ; preds = %6, %10
  %11 = load ptr, ptr %5, align 8
  %12 = getelementptr inbounds nuw i8, ptr %0, i64 32
  %13 = tail call noundef zeroext i1 @_ZNK32pxrInternal_v0_24__pxrReserved__8UsdStage40_GetTimeSamplesInIntervalFromResolveInfoERKNS_14UsdResolveInfoERKNS_12UsdAttributeERKNS_10GfIntervalEPSt6vectorIdSaIdEE(ptr noundef nonnull align 8 dereferenceable(1282) %11, ptr noundef nonnull align 8 dereferenceable(77) %12, ptr noundef nonnull align 8 dereferenceable(32) %0, ptr noundef nonnull align 8 dereferenceable(32) %1, ptr noundef %2)
  ret i1 %13
}